GAS LISTING /tmp/ccaLfTog.s 			page 1


   1              		.file	"scale.f90"
   2              		.text
   3              	.Ltext0:
   4              		.section	.text.unlikely,"ax",@progbits
   5              	.LCOLDB4:
   6              		.text
   7              	.LHOTB4:
   8              		.p2align 4,,15
   9              		.section	.text.unlikely
  10              	.Ltext_cold0:
  11              		.text
  12              		.globl	__scalemod_MOD_exvalue
  14              	__scalemod_MOD_exvalue:
  15              	.LFB0:
  16              		.file 1 "<command-line>"
   1:<command-line> **** 
  17              		.loc 1 37 0
  18              		.cfi_startproc
  19              	.LVL0:
  20 0000 56       		pushl	%esi
  21              		.cfi_def_cfa_offset 8
  22              		.cfi_offset 6, -8
  23              	.LBB2:
  24 0001 B9010000 		movl	$1, %ecx
  24      00
  25              	.LBE2:
  26 0006 53       		pushl	%ebx
  27              		.cfi_def_cfa_offset 12
  28              		.cfi_offset 3, -12
  29              	.LBB3:
  30 0007 89CB     		movl	%ecx, %ebx
  31              	.LBE3:
  32 0009 83EC14   		subl	$20, %esp
  33              		.cfi_def_cfa_offset 32
  34              	.LBB4:
  35              		.loc 1 41 0
  36 000c DD050000 		fldl	__scalemod_MOD_avalue
  36      0000
  37              	.LBE4:
  38              		.loc 1 37 0
  39 0012 8B742420 		movl	32(%esp), %esi
  40              	.LBB6:
  41 0016 8B460C   		movl	12(%esi), %eax
  42              	.LBE6:
  43              	.LBB7:
  44              		.loc 1 41 0
  45 0019 68D01263 		pushl	$1097011920
  45      41
  46              		.cfi_def_cfa_offset 36
  47 001e 6A00     		pushl	$0
  48              		.cfi_def_cfa_offset 40
  49              	.LBE7:
  50              	.LBB8:
  51              		.loc 1 37 0
  52 0020 85C0     		testl	%eax, %eax
  53 0022 0F45D8   		cmovne	%eax, %ebx
  54              	.LVL1:
GAS LISTING /tmp/ccaLfTog.s 			page 2


  55              	.LBE8:
  56              	.LBB9:
  57              		.loc 1 41 0
  58 0025 83EC08   		subl	$8, %esp
  59              		.cfi_def_cfa_offset 48
  60 0028 DD1424   		fstl	(%esp)
  61 002b DD5C2418 		fstpl	24(%esp)
  62 002f E8FCFFFF 		call	pow
  62      FF
  63              	.LVL2:
  64 0034 8B36     		movl	(%esi), %esi
  65 0036 83C410   		addl	$16, %esp
  66              		.cfi_def_cfa_offset 32
  67 0039 BA000000 		movl	$__scalemod_MOD_vb, %edx
  67      00
  68 003e D9E8     		fld1
  69 0040 D9C1     		fld	%st(1)
  70 0042 D8E1     		fsub	%st(1), %st
  71 0044 DD442408 		fldl	8(%esp)
  72 0048 8D0CDD00 		leal	0(,%ebx,8), %ecx
  72      000000
  73 004f DEE2     		fsubp	%st, %st(2)
  74              	.LBB5:
  75 0051 D9050000 		flds	.LC2
  75      0000
  76 0057 89F68DBC 		.p2align 4,,10
  76      27000000 
  76      00
  77              		.p2align 3
  78              	.L3:
  79              		.loc 1 41 0 is_stmt 0 discriminator 2
  80 0060 DD02     		fldl	(%edx)
  81 0062 83C240   		addl	$64, %edx
  82 0065 D9C0     		fld	%st(0)
  83 0067 D8CA     		fmul	%st(2), %st
  84 0069 D8CD     		fmul	%st(5), %st
  85 006b D9C9     		fxch	%st(1)
  86 006d D8CB     		fmul	%st(3), %st
  87 006f D8F4     		fdiv	%st(4), %st
  88 0071 DEC1     		faddp	%st, %st(1)
  89 0073 DD1E     		fstpl	(%esi)
  90 0075 DD42C8   		fldl	-56(%edx)
  91 0078 01CE     		addl	%ecx, %esi
  92 007a D9C0     		fld	%st(0)
  93 007c D8CA     		fmul	%st(2), %st
  94 007e D8CD     		fmul	%st(5), %st
  95 0080 D9C9     		fxch	%st(1)
  96 0082 D8CB     		fmul	%st(3), %st
  97 0084 D8F4     		fdiv	%st(4), %st
  98 0086 DEC1     		faddp	%st, %st(1)
  99 0088 DD1E     		fstpl	(%esi)
 100 008a DD42D0   		fldl	-48(%edx)
 101 008d 01CE     		addl	%ecx, %esi
 102 008f D9C0     		fld	%st(0)
 103 0091 D8CA     		fmul	%st(2), %st
 104 0093 D8CD     		fmul	%st(5), %st
 105 0095 D9C9     		fxch	%st(1)
GAS LISTING /tmp/ccaLfTog.s 			page 3


 106 0097 D8CB     		fmul	%st(3), %st
 107 0099 D8F4     		fdiv	%st(4), %st
 108 009b DEC1     		faddp	%st, %st(1)
 109 009d DD1E     		fstpl	(%esi)
 110 009f DD42D8   		fldl	-40(%edx)
 111 00a2 01CE     		addl	%ecx, %esi
 112 00a4 D9C0     		fld	%st(0)
 113 00a6 D8CA     		fmul	%st(2), %st
 114 00a8 D8CD     		fmul	%st(5), %st
 115 00aa D9C9     		fxch	%st(1)
 116 00ac D8CB     		fmul	%st(3), %st
 117 00ae D8F4     		fdiv	%st(4), %st
 118 00b0 DEC1     		faddp	%st, %st(1)
 119 00b2 DD1E     		fstpl	(%esi)
 120 00b4 DD42E0   		fldl	-32(%edx)
 121 00b7 01CE     		addl	%ecx, %esi
 122 00b9 D9C0     		fld	%st(0)
 123 00bb D8CA     		fmul	%st(2), %st
 124 00bd D8CD     		fmul	%st(5), %st
 125 00bf D9C9     		fxch	%st(1)
 126 00c1 D8CB     		fmul	%st(3), %st
 127 00c3 D8F4     		fdiv	%st(4), %st
 128 00c5 DEC1     		faddp	%st, %st(1)
 129 00c7 DD1E     		fstpl	(%esi)
 130 00c9 DD42E8   		fldl	-24(%edx)
 131 00cc 01CE     		addl	%ecx, %esi
 132 00ce D9C0     		fld	%st(0)
 133 00d0 D8CA     		fmul	%st(2), %st
 134 00d2 D8CD     		fmul	%st(5), %st
 135 00d4 D9C9     		fxch	%st(1)
 136 00d6 D8CB     		fmul	%st(3), %st
 137 00d8 D8F4     		fdiv	%st(4), %st
 138 00da DEC1     		faddp	%st, %st(1)
 139 00dc DD1E     		fstpl	(%esi)
 140 00de DD42F0   		fldl	-16(%edx)
 141 00e1 01CE     		addl	%ecx, %esi
 142 00e3 D9C0     		fld	%st(0)
 143 00e5 D8CA     		fmul	%st(2), %st
 144 00e7 D8CD     		fmul	%st(5), %st
 145 00e9 D9C9     		fxch	%st(1)
 146 00eb D8CB     		fmul	%st(3), %st
 147 00ed D8F4     		fdiv	%st(4), %st
 148 00ef DEC1     		faddp	%st, %st(1)
 149 00f1 DD1E     		fstpl	(%esi)
 150 00f3 DD42F8   		fldl	-8(%edx)
 151 00f6 01CE     		addl	%ecx, %esi
 152 00f8 D9C0     		fld	%st(0)
 153 00fa D8CA     		fmul	%st(2), %st
 154 00fc D8CD     		fmul	%st(5), %st
 155 00fe D9C9     		fxch	%st(1)
 156 0100 D8CB     		fmul	%st(3), %st
 157 0102 D8F4     		fdiv	%st(4), %st
 158 0104 DEC1     		faddp	%st, %st(1)
 159 0106 DD1E     		fstpl	(%esi)
 160 0108 01CE     		addl	%ecx, %esi
 161 010a 81FA0002 		cmpl	$__scalemod_MOD_vb+512, %edx
 161      0000
GAS LISTING /tmp/ccaLfTog.s 			page 4


 162 0110 0F854AFF 		jne	.L3
 162      FFFF
 163 0116 DDD8     		fstp	%st(0)
 164 0118 DDD8     		fstp	%st(0)
 165 011a DDD8     		fstp	%st(0)
 166 011c DDD8     		fstp	%st(0)
 167              	.LBE5:
 168              	.LBE9:
 169              		.loc 1 45 0 is_stmt 1
 170 011e 83C414   		addl	$20, %esp
 171              		.cfi_def_cfa_offset 12
 172 0121 5B       		popl	%ebx
 173              		.cfi_restore 3
 174              		.cfi_def_cfa_offset 8
 175 0122 5E       		popl	%esi
 176              		.cfi_restore 6
 177              		.cfi_def_cfa_offset 4
 178 0123 C3       		ret
 179              		.cfi_endproc
 180              	.LFE0:
 182              		.section	.text.unlikely
 183              	.LCOLDE4:
 184              		.text
 185              	.LHOTE4:
 186              		.section	.text.unlikely
 187              	.LCOLDB5:
 188              		.text
 189              	.LHOTB5:
 190 0124 8DB60000 		.p2align 4,,15
 190      00008DBF 
 190      00000000 
 191              		.globl	__scalemod_MOD_scale_0
 193              	__scalemod_MOD_scale_0:
 194              	.LFB1:
 195              		.loc 1 23 0
 196              		.cfi_startproc
 197              	.LVL3:
 198 0130 55       		pushl	%ebp
 199              		.cfi_def_cfa_offset 8
 200              		.cfi_offset 5, -8
 201              	.LBB10:
 202 0131 BA010000 		movl	$1, %edx
 202      00
 203              	.LBE10:
 204 0136 57       		pushl	%edi
 205              		.cfi_def_cfa_offset 12
 206              		.cfi_offset 7, -12
 207 0137 56       		pushl	%esi
 208              		.cfi_def_cfa_offset 16
 209              		.cfi_offset 6, -16
 210 0138 53       		pushl	%ebx
 211              		.cfi_def_cfa_offset 20
 212              		.cfi_offset 3, -20
 213              		.loc 1 23 0
 214 0139 8B742418 		movl	24(%esp), %esi
 215 013d 8B44241C 		movl	28(%esp), %eax
 216 0141 8B7C2414 		movl	20(%esp), %edi
GAS LISTING /tmp/ccaLfTog.s 			page 5


 217              	.LVL4:
 218              	.LBB11:
 219 0145 8B5E0C   		movl	12(%esi), %ebx
 220              	.LBE11:
 221              	.LBB12:
 222 0148 8B480C   		movl	12(%eax), %ecx
 223              	.LBE12:
 224              	.LBB13:
 225 014b 8B6F0C   		movl	12(%edi), %ebp
 226 014e 8B36     		movl	(%esi), %esi
 227              	.LBE13:
 228              	.LBB14:
 229 0150 85DB     		testl	%ebx, %ebx
 230 0152 8B00     		movl	(%eax), %eax
 231 0154 0F44DA   		cmove	%edx, %ebx
 232              	.LBE14:
 233              	.LBB15:
 234 0157 85C9     		testl	%ecx, %ecx
 235 0159 8B3F     		movl	(%edi), %edi
 236 015b 0F44CA   		cmove	%edx, %ecx
 237              	.LBE15:
 238              	.LBB16:
 239 015e 85ED     		testl	%ebp, %ebp
 240 0160 0F45D5   		cmovne	%ebp, %edx
 241              	.LBE16:
 242              	.LBB17:
 243              		.loc 1 32 0
 244 0163 8B6C2420 		movl	32(%esp), %ebp
 245 0167 C1E303   		sall	$3, %ebx
 246 016a C1E103   		sall	$3, %ecx
 247 016d C1E203   		sall	$3, %edx
 248 0170 DD4500   		fldl	0(%ebp)
 249 0173 BD400000 		movl	$64, %ebp
 249      00
 250              	.LVL5:
 251 0178 908DB426 		.p2align 4,,10
 251      00000000 
 252              		.p2align 3
 253              	.L19:
 254              	.LBB18:
 255              		.loc 1 32 0 is_stmt 0 discriminator 2
 256 0180 DD06     		fldl	(%esi)
 257 0182 01DE     		addl	%ebx, %esi
 258 0184 D8C9     		fmul	%st(1), %st
 259 0186 DC00     		faddl	(%eax)
 260 0188 01C8     		addl	%ecx, %eax
 261 018a DD1F     		fstpl	(%edi)
 262 018c DD06     		fldl	(%esi)
 263 018e 01D7     		addl	%edx, %edi
 264 0190 01DE     		addl	%ebx, %esi
 265 0192 D8C9     		fmul	%st(1), %st
 266 0194 DC00     		faddl	(%eax)
 267 0196 01C8     		addl	%ecx, %eax
 268 0198 DD1F     		fstpl	(%edi)
 269 019a DD06     		fldl	(%esi)
 270 019c 01D7     		addl	%edx, %edi
 271 019e 01DE     		addl	%ebx, %esi
GAS LISTING /tmp/ccaLfTog.s 			page 6


 272 01a0 D8C9     		fmul	%st(1), %st
 273 01a2 DC00     		faddl	(%eax)
 274 01a4 01C8     		addl	%ecx, %eax
 275 01a6 DD1F     		fstpl	(%edi)
 276 01a8 DD06     		fldl	(%esi)
 277 01aa 01D7     		addl	%edx, %edi
 278 01ac 01DE     		addl	%ebx, %esi
 279 01ae D8C9     		fmul	%st(1), %st
 280 01b0 DC00     		faddl	(%eax)
 281 01b2 01C8     		addl	%ecx, %eax
 282 01b4 DD1F     		fstpl	(%edi)
 283 01b6 DD06     		fldl	(%esi)
 284 01b8 01D7     		addl	%edx, %edi
 285 01ba 01DE     		addl	%ebx, %esi
 286 01bc D8C9     		fmul	%st(1), %st
 287 01be DC00     		faddl	(%eax)
 288 01c0 01C8     		addl	%ecx, %eax
 289 01c2 DD1F     		fstpl	(%edi)
 290 01c4 DD06     		fldl	(%esi)
 291 01c6 01D7     		addl	%edx, %edi
 292 01c8 01DE     		addl	%ebx, %esi
 293 01ca D8C9     		fmul	%st(1), %st
 294 01cc DC00     		faddl	(%eax)
 295 01ce 01C8     		addl	%ecx, %eax
 296 01d0 DD1F     		fstpl	(%edi)
 297 01d2 DD06     		fldl	(%esi)
 298 01d4 01D7     		addl	%edx, %edi
 299 01d6 01DE     		addl	%ebx, %esi
 300 01d8 D8C9     		fmul	%st(1), %st
 301 01da DC00     		faddl	(%eax)
 302 01dc 01C8     		addl	%ecx, %eax
 303 01de DD1F     		fstpl	(%edi)
 304 01e0 DD06     		fldl	(%esi)
 305 01e2 01D7     		addl	%edx, %edi
 306 01e4 01DE     		addl	%ebx, %esi
 307 01e6 D8C9     		fmul	%st(1), %st
 308 01e8 DC00     		faddl	(%eax)
 309 01ea 01C8     		addl	%ecx, %eax
 310 01ec DD1F     		fstpl	(%edi)
 311 01ee 01D7     		addl	%edx, %edi
 312 01f0 83ED08   		subl	$8, %ebp
 313 01f3 758B     		jne	.L19
 314 01f5 DDD8     		fstp	%st(0)
 315              	.LBE18:
 316              	.LBE17:
 317              		.loc 1 35 0 is_stmt 1
 318 01f7 5B       		popl	%ebx
 319              		.cfi_restore 3
 320              		.cfi_def_cfa_offset 16
 321 01f8 5E       		popl	%esi
 322              		.cfi_restore 6
 323              		.cfi_def_cfa_offset 12
 324 01f9 5F       		popl	%edi
 325              		.cfi_restore 7
 326              		.cfi_def_cfa_offset 8
 327 01fa 5D       		popl	%ebp
 328              		.cfi_restore 5
GAS LISTING /tmp/ccaLfTog.s 			page 7


 329              		.cfi_def_cfa_offset 4
 330 01fb C3       		ret
 331              		.cfi_endproc
 332              	.LFE1:
 334              		.section	.text.unlikely
 335              	.LCOLDE5:
 336              		.text
 337              	.LHOTE5:
 338              		.globl	__scalemod_MOD_vb
 339              		.bss
 340              		.align 64
 343              	__scalemod_MOD_vb:
 344 0000 00000000 		.zero	512
 344      00000000 
 344      00000000 
 344      00000000 
 344      00000000 
 345              		.globl	__scalemod_MOD_va
 346              		.align 64
 349              	__scalemod_MOD_va:
 350 0200 00000000 		.zero	512
 350      00000000 
 350      00000000 
 350      00000000 
 350      00000000 
 351              		.globl	__scalemod_MOD_flop
 352              		.data
 353              		.align 8
 356              	__scalemod_MOD_flop:
 357 0000 00000000 		.long	0
 358 0004 D012D341 		.long	1104351952
 359              		.globl	__scalemod_MOD_exact_value
 360              		.bss
 361              		.align 64
 364              	__scalemod_MOD_exact_value:
 365 0400 00000000 		.zero	512
 365      00000000 
 365      00000000 
 365      00000000 
 365      00000000 
 366              		.globl	__scalemod_MOD_avalue
 367              		.align 8
 370              	__scalemod_MOD_avalue:
 371 0600 00000000 		.zero	8
 371      00000000 
 372              		.section	.rodata.cst4,"aM",@progbits,4
 373              		.align 4
 374              	.LC2:
 375 0000 0000803E 		.long	1048576000
 376              		.text
 377              	.Letext0:
 378              		.section	.text.unlikely
 379              	.Letext_cold0:
 380              		.file 2 "<built-in>"
GAS LISTING /tmp/ccaLfTog.s 			page 8


DEFINED SYMBOLS
                            *ABS*:0000000000000000 scale.f90
     /tmp/ccaLfTog.s:14     .text:0000000000000000 __scalemod_MOD_exvalue
     /tmp/ccaLfTog.s:370    .bss:0000000000000600 __scalemod_MOD_avalue
     /tmp/ccaLfTog.s:343    .bss:0000000000000000 __scalemod_MOD_vb
     /tmp/ccaLfTog.s:193    .text:0000000000000130 __scalemod_MOD_scale_0
     /tmp/ccaLfTog.s:349    .bss:0000000000000200 __scalemod_MOD_va
     /tmp/ccaLfTog.s:356    .data:0000000000000000 __scalemod_MOD_flop
     /tmp/ccaLfTog.s:364    .bss:0000000000000400 __scalemod_MOD_exact_value

UNDEFINED SYMBOLS
pow
GAS LISTING /tmp/ccaLfTog.s 			page 1


   1              		.file	"iterate.f90"
   2              		.text
   3              	.Ltext0:
   4              		.section	.rodata.str1.1,"aMS",@progbits,1
   5              	.LC0:
   6 0000 69746572 		.string	"iterate.f90"
   6      6174652E 
   6      66393000 
   7              		.section	.rodata
   8              	.LC35:
   9 0000 2832582C 		.ascii	"(2X,3G20.11)"
   9      33473230 
   9      2E313129 
  10              	.LC36:
  11 000c 2832582C 		.ascii	"(2X,2E17.9, A, A, A, A)"
  11      32453137 
  11      2E392C20 
  11      412C2041 
  11      2C20412C 
  12              	.LC38:
  13 0023 3B205052 		.ascii	"; PREC : "
  13      4543203A 
  13      20
  14              	.LC39:
  15 002c 3B20464C 		.ascii	"; FLAGS : "
  15      41475320 
  15      3A20
  16 0036 0000     		.align 4
  17              	.LC40:
  18 0038 2D4F3320 		.ascii	"-O3 -ftree-vectorize -funroll-loops -march=native"
  18      2D667472 
  18      65652D76 
  18      6563746F 
  18      72697A65 
  19              		.section	.text.unlikely,"ax",@progbits
  20              	.LCOLDB42:
  21              		.text
  22              	.LHOTB42:
  23              		.p2align 4,,15
  24              		.section	.text.unlikely
  25              	.Ltext_cold0:
  26              		.text
  28              	MAIN__:
  29              	.LFB0:
  30              		.file 1 "<command-line>"
   1:<command-line> **** 
  31              		.loc 1 1 0
  32              		.cfi_startproc
  33 0000 55       		pushl	%ebp
  34              		.cfi_def_cfa_offset 8
  35              		.cfi_offset 5, -8
  36 0001 57       		pushl	%edi
  37              		.cfi_def_cfa_offset 12
  38              		.cfi_offset 7, -12
  39 0002 56       		pushl	%esi
  40              		.cfi_def_cfa_offset 16
  41              		.cfi_offset 6, -16
GAS LISTING /tmp/ccaLfTog.s 			page 2


  42 0003 53       		pushl	%ebx
  43              		.cfi_def_cfa_offset 20
  44              		.cfi_offset 3, -20
  45 0004 81ECB803 		subl	$952, %esp
  45      0000
  46              		.cfi_def_cfa_offset 972
  47              	.LBB2:
  48              		.loc 1 17 0
  49 000a 8DB424AC 		leal	428(%esp), %esi
  49      010000
  50 0011 C78424B4 		movl	$.LC0, 436(%esp)
  50      01000000 
  50      000000
  51 001c C78424B8 		movl	$17, 440(%esp)
  51      01000011 
  51      000000
  52 0027 C78424AC 		movl	$128, 428(%esp)
  52      01000080 
  52      000000
  53 0032 C78424B0 		movl	$5, 432(%esp)
  53      01000005 
  53      000000
  54 003d 56       		pushl	%esi
  55              		.cfi_def_cfa_offset 976
  56 003e E8FCFFFF 		call	_gfortran_st_read
  56      FF
  57              	.LVL0:
  58 0043 83C40C   		addl	$12, %esp
  59              		.cfi_def_cfa_offset 964
  60 0046 6A08     		pushl	$8
  61              		.cfi_def_cfa_offset 968
  62 0048 68000000 		pushl	$__scalemod_MOD_avalue
  62      00
  63              		.cfi_def_cfa_offset 972
  64 004d 56       		pushl	%esi
  65              		.cfi_def_cfa_offset 976
  66 004e E8FCFFFF 		call	_gfortran_transfer_real
  66      FF
  67              	.LVL1:
  68 0053 893424   		movl	%esi, (%esp)
  69 0056 E8FCFFFF 		call	_gfortran_st_read_done
  69      FF
  70              	.LVL2:
  71              	.LBE2:
  72              	.LBB3:
  73              		.loc 1 21 0
  74 005b 660F2805 		movapd	.LC1, %xmm0
  74      00000000 
  75 0063 83C410   		addl	$16, %esp
  76              		.cfi_def_cfa_offset 960
  77 0066 31C0     		xorl	%eax, %eax
  78 0068 660F280D 		movapd	.LC2, %xmm1
  78      10000000 
  79 0070 660F2815 		movapd	.LC3, %xmm2
  79      20000000 
  80 0078 0F110500 		movups	%xmm0, __scalemod_MOD_vb
  80      000000
GAS LISTING /tmp/ccaLfTog.s 			page 3


  81 007f 660F281D 		movapd	.LC4, %xmm3
  81      30000000 
  82 0087 0F110D10 		movups	%xmm1, __scalemod_MOD_vb+16
  82      000000
  83 008e 660F2825 		movapd	.LC5, %xmm4
  83      40000000 
  84 0096 0F111520 		movups	%xmm2, __scalemod_MOD_vb+32
  84      000000
  85 009d 660F282D 		movapd	.LC6, %xmm5
  85      50000000 
  86 00a5 0F111D30 		movups	%xmm3, __scalemod_MOD_vb+48
  86      000000
  87 00ac 660F2835 		movapd	.LC7, %xmm6
  87      60000000 
  88 00b4 0F112540 		movups	%xmm4, __scalemod_MOD_vb+64
  88      000000
  89 00bb 660F283D 		movapd	.LC8, %xmm7
  89      70000000 
  90 00c3 0F112D50 		movups	%xmm5, __scalemod_MOD_vb+80
  90      000000
  91 00ca 660F2805 		movapd	.LC9, %xmm0
  91      80000000 
  92 00d2 0F113560 		movups	%xmm6, __scalemod_MOD_vb+96
  92      000000
  93 00d9 660F280D 		movapd	.LC10, %xmm1
  93      90000000 
  94 00e1 0F113D70 		movups	%xmm7, __scalemod_MOD_vb+112
  94      000000
  95 00e8 660F2815 		movapd	.LC11, %xmm2
  95      A0000000 
  96 00f0 0F110580 		movups	%xmm0, __scalemod_MOD_vb+128
  96      000000
  97 00f7 660F281D 		movapd	.LC12, %xmm3
  97      B0000000 
  98 00ff 0F110D90 		movups	%xmm1, __scalemod_MOD_vb+144
  98      000000
  99 0106 660F2825 		movapd	.LC13, %xmm4
  99      C0000000 
 100 010e 0F1115A0 		movups	%xmm2, __scalemod_MOD_vb+160
 100      000000
 101 0115 660F282D 		movapd	.LC14, %xmm5
 101      D0000000 
 102 011d 0F111DB0 		movups	%xmm3, __scalemod_MOD_vb+176
 102      000000
 103 0124 660F2835 		movapd	.LC15, %xmm6
 103      E0000000 
 104 012c 0F1125C0 		movups	%xmm4, __scalemod_MOD_vb+192
 104      000000
 105 0133 660F283D 		movapd	.LC16, %xmm7
 105      F0000000 
 106 013b 0F112DD0 		movups	%xmm5, __scalemod_MOD_vb+208
 106      000000
 107 0142 660F2805 		movapd	.LC17, %xmm0
 107      00010000 
 108 014a 0F1135E0 		movups	%xmm6, __scalemod_MOD_vb+224
 108      000000
 109 0151 0F113DF0 		movups	%xmm7, __scalemod_MOD_vb+240
GAS LISTING /tmp/ccaLfTog.s 			page 4


 109      000000
 110 0158 0F110500 		movups	%xmm0, __scalemod_MOD_vb+256
 110      010000
 111 015f 660F280D 		movapd	.LC18, %xmm1
 111      10010000 
 112 0167 660F2815 		movapd	.LC19, %xmm2
 112      20010000 
 113 016f 660F281D 		movapd	.LC20, %xmm3
 113      30010000 
 114 0177 0F110D10 		movups	%xmm1, __scalemod_MOD_vb+272
 114      010000
 115 017e 660F2825 		movapd	.LC21, %xmm4
 115      40010000 
 116 0186 0F111520 		movups	%xmm2, __scalemod_MOD_vb+288
 116      010000
 117 018d 660F282D 		movapd	.LC22, %xmm5
 117      50010000 
 118 0195 0F111D30 		movups	%xmm3, __scalemod_MOD_vb+304
 118      010000
 119 019c 660F2835 		movapd	.LC23, %xmm6
 119      60010000 
 120 01a4 0F112540 		movups	%xmm4, __scalemod_MOD_vb+320
 120      010000
 121 01ab 660F283D 		movapd	.LC24, %xmm7
 121      70010000 
 122 01b3 0F112D50 		movups	%xmm5, __scalemod_MOD_vb+336
 122      010000
 123 01ba 660F2805 		movapd	.LC25, %xmm0
 123      80010000 
 124 01c2 0F113560 		movups	%xmm6, __scalemod_MOD_vb+352
 124      010000
 125 01c9 0F113D70 		movups	%xmm7, __scalemod_MOD_vb+368
 125      010000
 126 01d0 660F280D 		movapd	.LC26, %xmm1
 126      90010000 
 127 01d8 660F2815 		movapd	.LC27, %xmm2
 127      A0010000 
 128 01e0 0F110580 		movups	%xmm0, __scalemod_MOD_vb+384
 128      010000
 129 01e7 660F281D 		movapd	.LC28, %xmm3
 129      B0010000 
 130 01ef 0F110D90 		movups	%xmm1, __scalemod_MOD_vb+400
 130      010000
 131 01f6 660F2825 		movapd	.LC29, %xmm4
 131      C0010000 
 132 01fe 0F1115A0 		movups	%xmm2, __scalemod_MOD_vb+416
 132      010000
 133 0205 660F282D 		movapd	.LC30, %xmm5
 133      D0010000 
 134 020d 0F111DB0 		movups	%xmm3, __scalemod_MOD_vb+432
 134      010000
 135 0214 660F2835 		movapd	.LC31, %xmm6
 135      E0010000 
 136 021c 0F1125C0 		movups	%xmm4, __scalemod_MOD_vb+448
 136      010000
 137 0223 660F283D 		movapd	.LC32, %xmm7
 137      F0010000 
GAS LISTING /tmp/ccaLfTog.s 			page 5


 138 022b 0F112DD0 		movups	%xmm5, __scalemod_MOD_vb+464
 138      010000
 139 0232 660F2805 		movapd	.LC33, %xmm0
 139      00020000 
 140 023a 0F1135E0 		movups	%xmm6, __scalemod_MOD_vb+480
 140      010000
 141 0241 0F113DF0 		movups	%xmm7, __scalemod_MOD_vb+496
 141      010000
 142              	.L2:
 143 0248 8D5010   		leal	16(%eax), %edx
 144              	.LBE3:
 145              	.LBB4:
 146              		.loc 1 23 0 discriminator 2
 147 024b 660F1092 		movupd	__scalemod_MOD_vb(%edx), %xmm2
 147      00000000 
 148 0253 8D4820   		leal	32(%eax), %ecx
 149 0256 660F1099 		movupd	__scalemod_MOD_vb(%ecx), %xmm3
 149      00000000 
 150 025e 660F1088 		movupd	__scalemod_MOD_vb(%eax), %xmm1
 150      00000000 
 151 0266 660F59D0 		mulpd	%xmm0, %xmm2
 152 026a 660F59D8 		mulpd	%xmm0, %xmm3
 153 026e 660F10A0 		movupd	__scalemod_MOD_vb+48(%eax), %xmm4
 153      30000000 
 154 0276 660F59C8 		mulpd	%xmm0, %xmm1
 155 027a 660F10A8 		movupd	__scalemod_MOD_vb+64(%eax), %xmm5
 155      40000000 
 156 0282 8D5830   		leal	48(%eax), %ebx
 157 0285 660F10B0 		movupd	__scalemod_MOD_vb+80(%eax), %xmm6
 157      50000000 
 158 028d 8D7840   		leal	64(%eax), %edi
 159 0290 8D6850   		leal	80(%eax), %ebp
 160 0293 660F59E0 		mulpd	%xmm0, %xmm4
 161 0297 0F118800 		movups	%xmm1, __scalemod_MOD_va(%eax)
 161      000000
 162 029e 660F59E8 		mulpd	%xmm0, %xmm5
 163 02a2 0F119200 		movups	%xmm2, __scalemod_MOD_va(%edx)
 163      000000
 164 02a9 8D5060   		leal	96(%eax), %edx
 165 02ac 660F10BA 		movupd	__scalemod_MOD_vb(%edx), %xmm7
 165      00000000 
 166 02b4 0F119900 		movups	%xmm3, __scalemod_MOD_va(%ecx)
 166      000000
 167 02bb 8D4870   		leal	112(%eax), %ecx
 168 02be 83E880   		subl	$-128, %eax
 169 02c1 660F1089 		movupd	__scalemod_MOD_vb(%ecx), %xmm1
 169      00000000 
 170 02c9 660F59F0 		mulpd	%xmm0, %xmm6
 171 02cd 660F59F8 		mulpd	%xmm0, %xmm7
 172 02d1 0F11A300 		movups	%xmm4, __scalemod_MOD_va(%ebx)
 172      000000
 173 02d8 660F59C8 		mulpd	%xmm0, %xmm1
 174 02dc 0F11AF00 		movups	%xmm5, __scalemod_MOD_va(%edi)
 174      000000
 175 02e3 0F11B500 		movups	%xmm6, __scalemod_MOD_va(%ebp)
 175      000000
 176 02ea 0F11BA00 		movups	%xmm7, __scalemod_MOD_va(%edx)
GAS LISTING /tmp/ccaLfTog.s 			page 6


 176      000000
 177 02f1 0F118900 		movups	%xmm1, __scalemod_MOD_va(%ecx)
 177      000000
 178 02f8 3D000200 		cmpl	$512, %eax
 178      00
 179 02fd 0F8545FF 		jne	.L2
 179      FFFF
 180              	.LBE4:
 181              		.loc 1 26 0
 182 0303 83EC0C   		subl	$12, %esp
 183              		.cfi_def_cfa_offset 972
 184 0306 BB809698 		movl	$10000000, %ebx
 184      00
 185 030b 8D44241C 		leal	28(%esp), %eax
 186 030f 50       		pushl	%eax
 187              		.cfi_def_cfa_offset 976
 188 0310 E8FCFFFF 		call	_gfortran_cpu_time_8
 188      FF
 189              	.LVL3:
 190 0315 83C410   		addl	$16, %esp
 191              		.cfi_def_cfa_offset 960
 192 0318 8D6C2430 		leal	48(%esp), %ebp
 193 031c 8D7C244C 		leal	76(%esp), %edi
 194              	.LVL4:
 195              		.p2align 4,,10
 196              		.p2align 3
 197              	.L4:
 198              	.LBB5:
 199              	.LBB6:
 200              		.loc 1 31 0
 201 0320 C7442420 		movl	$537, 32(%esp)
 201      19020000 
 202 0328 C7442428 		movl	$0, 40(%esp)
 202      00000000 
 203 0330 C744242C 		movl	$63, 44(%esp)
 203      3F000000 
 204 0338 C7442424 		movl	$1, 36(%esp)
 204      01000000 
 205 0340 C7442418 		movl	$__scalemod_MOD_va, 24(%esp)
 205      00000000 
 206 0348 C744241C 		movl	$0, 28(%esp)
 206      00000000 
 207 0350 C7442438 		movl	$537, 56(%esp)
 207      19020000 
 208 0358 C7442440 		movl	$0, 64(%esp)
 208      00000000 
 209 0360 C7442444 		movl	$63, 68(%esp)
 209      3F000000 
 210 0368 C744243C 		movl	$1, 60(%esp)
 210      01000000 
 211 0370 C7442430 		movl	$__scalemod_MOD_vb, 48(%esp)
 211      00000000 
 212 0378 C7442434 		movl	$0, 52(%esp)
 212      00000000 
 213 0380 C7442454 		movl	$537, 84(%esp)
 213      19020000 
 214 0388 C7442458 		movl	$1, 88(%esp)
GAS LISTING /tmp/ccaLfTog.s 			page 7


 214      01000000 
 215 0390 C744245C 		movl	$0, 92(%esp)
 215      00000000 
 216 0398 C7442460 		movl	$63, 96(%esp)
 216      3F000000 
 217 03a0 8974244C 		movl	%esi, 76(%esp)
 218 03a4 C7442450 		movl	$0, 80(%esp)
 218      00000000 
 219 03ac 68000000 		pushl	$__scalemod_MOD_avalue
 219      00
 220              		.cfi_def_cfa_offset 964
 221 03b1 55       		pushl	%ebp
 222              		.cfi_def_cfa_offset 968
 223 03b2 8D542420 		leal	32(%esp), %edx
 224 03b6 52       		pushl	%edx
 225              		.cfi_def_cfa_offset 972
 226 03b7 57       		pushl	%edi
 227              		.cfi_def_cfa_offset 976
 228 03b8 E8FCFFFF 		call	__scalemod_MOD_scale_0
 228      FF
 229              	.LVL5:
 230 03bd 8B4C245C 		movl	92(%esp), %ecx
 231 03c1 31C0     		xorl	%eax, %eax
 232 03c3 83C410   		addl	$16, %esp
 233              		.cfi_def_cfa_offset 960
 234 03c6 8D76008D 		.p2align 4,,10
 234      BC270000 
 234      0000
 235              		.p2align 3
 236              	.L3:
 237              	.LBB7:
 238              		.loc 1 31 0 is_stmt 0 discriminator 2
 239 03d0 DD0401   		fldl	(%ecx,%eax)
 240 03d3 DD980000 		fstpl	__scalemod_MOD_va(%eax)
 240      0000
 241 03d9 DD440108 		fldl	8(%ecx,%eax)
 242 03dd DD980800 		fstpl	__scalemod_MOD_va+8(%eax)
 242      0000
 243 03e3 DD440110 		fldl	16(%ecx,%eax)
 244 03e7 DD981000 		fstpl	__scalemod_MOD_va+16(%eax)
 244      0000
 245 03ed DD440118 		fldl	24(%ecx,%eax)
 246 03f1 DD981800 		fstpl	__scalemod_MOD_va+24(%eax)
 246      0000
 247 03f7 DD440120 		fldl	32(%ecx,%eax)
 248 03fb DD982000 		fstpl	__scalemod_MOD_va+32(%eax)
 248      0000
 249 0401 DD440128 		fldl	40(%ecx,%eax)
 250 0405 DD982800 		fstpl	__scalemod_MOD_va+40(%eax)
 250      0000
 251 040b DD440130 		fldl	48(%ecx,%eax)
 252 040f DD983000 		fstpl	__scalemod_MOD_va+48(%eax)
 252      0000
 253 0415 DD440138 		fldl	56(%ecx,%eax)
 254 0419 83C040   		addl	$64, %eax
 255 041c DD98F8FF 		fstpl	__scalemod_MOD_va-8(%eax)
 255      FFFF
GAS LISTING /tmp/ccaLfTog.s 			page 8


 256 0422 3D000200 		cmpl	$512, %eax
 256      00
 257 0427 75A7     		jne	.L3
 258              	.LBE7:
 259              	.LBE6:
 260              		.loc 1 29 0 is_stmt 1
 261 0429 83EB01   		subl	$1, %ebx
 262 042c 0F85EEFE 		jne	.L4
 262      FFFF
 263              	.LBE5:
 264              		.loc 1 35 0
 265 0432 83EC0C   		subl	$12, %esp
 266              		.cfi_def_cfa_offset 972
 267 0435 8D5C2424 		leal	36(%esp), %ebx
 268 0439 53       		pushl	%ebx
 269              		.cfi_def_cfa_offset 976
 270 043a E8FCFFFF 		call	_gfortran_cpu_time_8
 270      FF
 271              	.LVL6:
 272              	.LBB8:
 273              		.loc 1 37 0
 274 043f 893424   		movl	%esi, (%esp)
 275 0442 C78424B8 		movl	$537, 440(%esp)
 275      01000019 
 275      020000
 276 044d C78424C0 		movl	$0, 448(%esp)
 276      01000000 
 276      000000
 277 0458 C78424C4 		movl	$63, 452(%esp)
 277      0100003F 
 277      000000
 278 0463 C78424BC 		movl	$1, 444(%esp)
 278      01000001 
 278      000000
 279 046e C78424B0 		movl	$__scalemod_MOD_exact_value, 432(%esp)
 279      01000000 
 279      000000
 280 0479 C78424B4 		movl	$0, 436(%esp)
 280      01000000 
 280      000000
 281 0484 E8FCFFFF 		call	__scalemod_MOD_exvalue
 281      FF
 282              	.LVL7:
 283              	.LBE8:
 284              	.LBB9:
 285              		.loc 1 39 0
 286 0489 660F1015 		movupd	__scalemod_MOD_exact_value+8, %xmm2
 286      08000000 
 287              	.LBE9:
 288              	.LBB10:
 289 0491 83C410   		addl	$16, %esp
 290              		.cfi_def_cfa_offset 960
 291 0494 BA100000 		movl	$16, %edx
 291      00
 292              	.LBE10:
 293              	.LBB11:
 294 0499 660F101D 		movupd	__scalemod_MOD_va+8, %xmm3
GAS LISTING /tmp/ccaLfTog.s 			page 9


 294      08000000 
 295 04a1 660F2805 		movapd	.LC34, %xmm0
 295      10020000 
 296 04a9 660F5CDA 		subpd	%xmm2, %xmm3
 297 04ad 660F54D8 		andpd	%xmm0, %xmm3
 298 04b1 660F5EDA 		divpd	%xmm2, %xmm3
 299 04b5 0F291E   		movaps	%xmm3, (%esi)
 300              	.L5:
 301              		.loc 1 39 0 is_stmt 0 discriminator 2
 302 04b8 660F10A2 		movupd	__scalemod_MOD_exact_value+8(%edx), %xmm4
 302      08000000 
 303 04c0 660F10B2 		movupd	__scalemod_MOD_exact_value+24(%edx), %xmm6
 303      18000000 
 304 04c8 660F10AA 		movupd	__scalemod_MOD_va+8(%edx), %xmm5
 304      08000000 
 305 04d0 660F10BA 		movupd	__scalemod_MOD_va+24(%edx), %xmm7
 305      18000000 
 306 04d8 660F5CEC 		subpd	%xmm4, %xmm5
 307 04dc 660F1092 		movupd	__scalemod_MOD_exact_value+40(%edx), %xmm2
 307      28000000 
 308 04e4 660F5CFE 		subpd	%xmm6, %xmm7
 309 04e8 660F108A 		movupd	__scalemod_MOD_va+40(%edx), %xmm1
 309      28000000 
 310 04f0 660F109A 		movupd	__scalemod_MOD_exact_value+56(%edx), %xmm3
 310      38000000 
 311 04f8 660F54E8 		andpd	%xmm0, %xmm5
 312 04fc 660F5EEC 		divpd	%xmm4, %xmm5
 313 0500 660F5CCA 		subpd	%xmm2, %xmm1
 314 0504 660F10A2 		movupd	__scalemod_MOD_va+56(%edx), %xmm4
 314      38000000 
 315 050c 660F54F8 		andpd	%xmm0, %xmm7
 316 0510 660F5CE3 		subpd	%xmm3, %xmm4
 317 0514 660F54C8 		andpd	%xmm0, %xmm1
 318 0518 660F54E0 		andpd	%xmm0, %xmm4
 319 051c 660F5EFE 		divpd	%xmm6, %xmm7
 320 0520 660F10B2 		movupd	__scalemod_MOD_va+72(%edx), %xmm6
 320      48000000 
 321 0528 0F292C16 		movaps	%xmm5, (%esi,%edx)
 322 052c 660F10AA 		movupd	__scalemod_MOD_exact_value+72(%edx), %xmm5
 322      48000000 
 323 0534 660F5CF5 		subpd	%xmm5, %xmm6
 324 0538 660F54F0 		andpd	%xmm0, %xmm6
 325 053c 660F5ECA 		divpd	%xmm2, %xmm1
 326 0540 660F1092 		movupd	__scalemod_MOD_va+88(%edx), %xmm2
 326      58000000 
 327 0548 0F297C16 		movaps	%xmm7, 16(%esi,%edx)
 327      10
 328 054d 660F10BA 		movupd	__scalemod_MOD_exact_value+88(%edx), %xmm7
 328      58000000 
 329 0555 660F5CD7 		subpd	%xmm7, %xmm2
 330 0559 660F54D0 		andpd	%xmm0, %xmm2
 331 055d 660F5EE3 		divpd	%xmm3, %xmm4
 332 0561 660F109A 		movupd	__scalemod_MOD_exact_value+104(%edx), %xmm3
 332      68000000 
 333 0569 0F294C16 		movaps	%xmm1, 32(%esi,%edx)
 333      20
 334 056e 660F108A 		movupd	__scalemod_MOD_va+104(%edx), %xmm1
GAS LISTING /tmp/ccaLfTog.s 			page 10


 334      68000000 
 335 0576 660F5CCB 		subpd	%xmm3, %xmm1
 336 057a 660F54C8 		andpd	%xmm0, %xmm1
 337 057e 660F5EF5 		divpd	%xmm5, %xmm6
 338 0582 660F10AA 		movupd	__scalemod_MOD_va+120(%edx), %xmm5
 338      78000000 
 339 058a 0F296416 		movaps	%xmm4, 48(%esi,%edx)
 339      30
 340 058f 660F10A2 		movupd	__scalemod_MOD_exact_value+120(%edx), %xmm4
 340      78000000 
 341 0597 660F5CEC 		subpd	%xmm4, %xmm5
 342 059b 660F54E8 		andpd	%xmm0, %xmm5
 343 059f 660F5ED7 		divpd	%xmm7, %xmm2
 344 05a3 660F10BA 		movupd	__scalemod_MOD_va+136(%edx), %xmm7
 344      88000000 
 345 05ab 0F297416 		movaps	%xmm6, 64(%esi,%edx)
 345      40
 346 05b0 660F10B2 		movupd	__scalemod_MOD_exact_value+136(%edx), %xmm6
 346      88000000 
 347 05b8 660F5CFE 		subpd	%xmm6, %xmm7
 348 05bc 660F54F8 		andpd	%xmm0, %xmm7
 349 05c0 660F5ECB 		divpd	%xmm3, %xmm1
 350 05c4 660F109A 		movupd	__scalemod_MOD_va+152(%edx), %xmm3
 350      98000000 
 351 05cc 0F295416 		movaps	%xmm2, 80(%esi,%edx)
 351      50
 352 05d1 660F1092 		movupd	__scalemod_MOD_exact_value+152(%edx), %xmm2
 352      98000000 
 353 05d9 660F5CDA 		subpd	%xmm2, %xmm3
 354 05dd 660F54D8 		andpd	%xmm0, %xmm3
 355 05e1 660F5EEC 		divpd	%xmm4, %xmm5
 356 05e5 0F294C16 		movaps	%xmm1, 96(%esi,%edx)
 356      60
 357 05ea 660F5EFE 		divpd	%xmm6, %xmm7
 358 05ee 0F296C16 		movaps	%xmm5, 112(%esi,%edx)
 358      70
 359 05f3 660F5EDA 		divpd	%xmm2, %xmm3
 360 05f7 0F29BC16 		movaps	%xmm7, 128(%esi,%edx)
 360      80000000 
 361 05ff 0F299C16 		movaps	%xmm3, 144(%esi,%edx)
 361      90000000 
 362 0607 81C2A000 		addl	$160, %edx
 362      0000
 363 060d 81FAF001 		cmpl	$496, %edx
 363      0000
 364 0613 0F859FFE 		jne	.L5
 364      FFFF
 365              		.loc 1 39 0
 366 0619 DD05F801 		fldl	__scalemod_MOD_exact_value+504
 366      0000
 367              	.LBE11:
 368              		.loc 1 41 0 is_stmt 1
 369 061f B94C4500 		movl	$17740, %ecx
 369      00
 370 0624 C744240A 		movl	$1112887108, 10(%esp)
 370      444F5542 
 371              	.LBB12:
GAS LISTING /tmp/ccaLfTog.s 			page 11


 372              		.loc 1 51 0
 373 062c 83EC0C   		subl	$12, %esp
 374              		.cfi_def_cfa_offset 972
 375              	.LBE12:
 376              	.LBB14:
 377              		.loc 1 39 0
 378 062f D9C0     		fld	%st(0)
 379              	.LBE14:
 380              		.loc 1 41 0
 381 0631 66894C24 		movw	%cx, 26(%esp)
 381      1A
 382              	.LBB15:
 383              		.loc 1 39 0
 384 0636 DC2DF801 		fsubrl	__scalemod_MOD_va+504
 384      0000
 385              	.LBE15:
 386              	.LBB16:
 387              		.loc 1 51 0
 388 063c C7442460 		movl	$.LC0, 96(%esp)
 388      00000000 
 389 0644 C7442464 		movl	$51, 100(%esp)
 389      33000000 
 390 064c C7842488 		movl	$.LC35, 136(%esp)
 390      00000000 
 390      000000
 391 0657 C784248C 		movl	$12, 140(%esp)
 391      0000000C 
 391      000000
 392 0662 C7442458 		movl	$4096, 88(%esp)
 392      00100000 
 393              	.LBE16:
 394              	.LBB17:
 395              		.loc 1 39 0
 396 066a D9E1     		fabs
 397              	.LBE17:
 398              	.LBB18:
 399              		.loc 1 51 0
 400 066c C744245C 		movl	$6, 92(%esp)
 400      06000000 
 401              	.LBE18:
 402              	.LBB19:
 403              		.loc 1 39 0
 404 0674 DEF1     		fdivp	%st, %st(1)
 405 0676 DD9C249C 		fstpl	924(%esp)
 405      030000
 406              	.LBE19:
 407              	.LBB20:
 408              		.loc 1 51 0
 409 067d 57       		pushl	%edi
 410              		.cfi_def_cfa_offset 976
 411 067e E8FCFFFF 		call	_gfortran_st_write
 411      FF
 412              	.LVL8:
 413              	.LBB13:
 414 0683 89742440 		movl	%esi, 64(%esp)
 415 0687 C7442448 		movl	$537, 72(%esp)
 415      19020000 
GAS LISTING /tmp/ccaLfTog.s 			page 12


 416 068f C7442450 		movl	$1, 80(%esp)
 416      01000000 
 417 0697 C7442454 		movl	$63, 84(%esp)
 417      3F000000 
 418 069f C744244C 		movl	$1, 76(%esp)
 418      01000000 
 419 06a7 C7442444 		movl	$-1, 68(%esp)
 419      FFFFFFFF 
 420 06af 6A00     		pushl	$0
 421              		.cfi_def_cfa_offset 980
 422 06b1 6A08     		pushl	$8
 423              		.cfi_def_cfa_offset 984
 424 06b3 55       		pushl	%ebp
 425              		.cfi_def_cfa_offset 988
 426 06b4 57       		pushl	%edi
 427              		.cfi_def_cfa_offset 992
 428 06b5 E8FCFFFF 		call	_gfortran_transfer_array_write
 428      FF
 429              	.LVL9:
 430              	.LBE13:
 431 06ba 83C414   		addl	$20, %esp
 432              		.cfi_def_cfa_offset 972
 433 06bd 57       		pushl	%edi
 434              		.cfi_def_cfa_offset 976
 435 06be E8FCFFFF 		call	_gfortran_st_write_done
 435      FF
 436              	.LVL10:
 437              	.LBE20:
 438              	.LBB21:
 439              		.loc 1 52 0
 440 06c3 893C24   		movl	%edi, (%esp)
 441 06c6 C7442464 		movl	$.LC0, 100(%esp)
 441      00000000 
 442 06ce C7442468 		movl	$52, 104(%esp)
 442      34000000 
 443 06d6 C744245C 		movl	$128, 92(%esp)
 443      80000000 
 444 06de C7442460 		movl	$6, 96(%esp)
 444      06000000 
 445 06e6 E8FCFFFF 		call	_gfortran_st_write
 445      FF
 446              	.LVL11:
 447 06eb 893C24   		movl	%edi, (%esp)
 448 06ee E8FCFFFF 		call	_gfortran_st_write_done
 448      FF
 449              	.LVL12:
 450              	.LBE21:
 451              	.LBB22:
 452              		.loc 1 55 0
 453 06f3 893C24   		movl	%edi, (%esp)
 454 06f6 C7442464 		movl	$.LC0, 100(%esp)
 454      00000000 
 455 06fe C7442468 		movl	$55, 104(%esp)
 455      37000000 
 456 0706 C784248C 		movl	$.LC36, 140(%esp)
 456      0000000C 
 456      000000
GAS LISTING /tmp/ccaLfTog.s 			page 13


 457 0711 C7842490 		movl	$23, 144(%esp)
 457      00000017 
 457      000000
 458 071c C744245C 		movl	$4096, 92(%esp)
 458      00100000 
 459 0724 C7442460 		movl	$6, 96(%esp)
 459      06000000 
 460 072c E8FCFFFF 		call	_gfortran_st_write
 460      FF
 461              	.LVL13:
 462              	.LBB23:
 463              		.loc 1 53 0
 464 0731 DD442428 		fldl	40(%esp)
 465 0735 DC642420 		fsubl	32(%esp)
 466 0739 DC3D0000 		fdivrl	__scalemod_MOD_flop
 466      0000
 467 073f DD5C2440 		fstpl	64(%esp)
 468 0743 83C40C   		addl	$12, %esp
 469              		.cfi_def_cfa_offset 964
 470 0746 6A08     		pushl	$8
 471              		.cfi_def_cfa_offset 968
 472 0748 55       		pushl	%ebp
 473              		.cfi_def_cfa_offset 972
 474 0749 57       		pushl	%edi
 475              		.cfi_def_cfa_offset 976
 476 074a E8FCFFFF 		call	_gfortran_transfer_real_write
 476      FF
 477              	.LVL14:
 478              	.LBE23:
 479              	.LBB24:
 480 074f DD442428 		fldl	40(%esp)
 481 0753 DC642420 		fsubl	32(%esp)
 482 0757 D83D0000 		fdivrs	.LC37
 482      0000
 483 075d DD5C2440 		fstpl	64(%esp)
 484 0761 83C40C   		addl	$12, %esp
 485              		.cfi_def_cfa_offset 964
 486 0764 6A08     		pushl	$8
 487              		.cfi_def_cfa_offset 968
 488 0766 55       		pushl	%ebp
 489              		.cfi_def_cfa_offset 972
 490 0767 57       		pushl	%edi
 491              		.cfi_def_cfa_offset 976
 492 0768 E8FCFFFF 		call	_gfortran_transfer_real_write
 492      FF
 493              	.LVL15:
 494              	.LBE24:
 495              		.loc 1 54 0
 496 076d 83C40C   		addl	$12, %esp
 497              		.cfi_def_cfa_offset 964
 498 0770 6A09     		pushl	$9
 499              		.cfi_def_cfa_offset 968
 500 0772 68230000 		pushl	$.LC38
 500      00
 501              		.cfi_def_cfa_offset 972
 502 0777 57       		pushl	%edi
 503              		.cfi_def_cfa_offset 976
GAS LISTING /tmp/ccaLfTog.s 			page 14


 504 0778 E8FCFFFF 		call	_gfortran_transfer_character_write
 504      FF
 505              	.LVL16:
 506 077d 83C40C   		addl	$12, %esp
 507              		.cfi_def_cfa_offset 964
 508 0780 6A06     		pushl	$6
 509              		.cfi_def_cfa_offset 968
 510 0782 8D742412 		leal	18(%esp), %esi
 511 0786 56       		pushl	%esi
 512              		.cfi_def_cfa_offset 972
 513 0787 57       		pushl	%edi
 514              		.cfi_def_cfa_offset 976
 515 0788 E8FCFFFF 		call	_gfortran_transfer_character_write
 515      FF
 516              	.LVL17:
 517              		.loc 1 55 0
 518 078d 83C40C   		addl	$12, %esp
 519              		.cfi_def_cfa_offset 964
 520 0790 6A0A     		pushl	$10
 521              		.cfi_def_cfa_offset 968
 522 0792 682C0000 		pushl	$.LC39
 522      00
 523              		.cfi_def_cfa_offset 972
 524 0797 57       		pushl	%edi
 525              		.cfi_def_cfa_offset 976
 526 0798 E8FCFFFF 		call	_gfortran_transfer_character_write
 526      FF
 527              	.LVL18:
 528 079d 83C40C   		addl	$12, %esp
 529              		.cfi_def_cfa_offset 964
 530 07a0 6A31     		pushl	$49
 531              		.cfi_def_cfa_offset 968
 532 07a2 68380000 		pushl	$.LC40
 532      00
 533              		.cfi_def_cfa_offset 972
 534 07a7 57       		pushl	%edi
 535              		.cfi_def_cfa_offset 976
 536 07a8 E8FCFFFF 		call	_gfortran_transfer_character_write
 536      FF
 537              	.LVL19:
 538 07ad 893C24   		movl	%edi, (%esp)
 539 07b0 E8FCFFFF 		call	_gfortran_st_write_done
 539      FF
 540              	.LVL20:
 541              	.LBE22:
 542              		.loc 1 60 0
 543 07b5 81C4BC03 		addl	$956, %esp
 543      0000
 544              		.cfi_def_cfa_offset 20
 545 07bb 5B       		popl	%ebx
 546              		.cfi_restore 3
 547              		.cfi_def_cfa_offset 16
 548 07bc 5E       		popl	%esi
 549              		.cfi_restore 6
 550              		.cfi_def_cfa_offset 12
 551 07bd 5F       		popl	%edi
 552              		.cfi_restore 7
GAS LISTING /tmp/ccaLfTog.s 			page 15


 553              		.cfi_def_cfa_offset 8
 554 07be 5D       		popl	%ebp
 555              		.cfi_restore 5
 556              		.cfi_def_cfa_offset 4
 557 07bf C3       		ret
 558              		.cfi_endproc
 559              	.LFE0:
 561              		.section	.text.unlikely
 562              	.LCOLDE42:
 563              		.text
 564              	.LHOTE42:
 565              		.section	.text.unlikely
 566              	.LCOLDB43:
 567              		.section	.text.startup,"ax",@progbits
 568              	.LHOTB43:
 569              		.p2align 4,,15
 570              		.globl	main
 572              	main:
 573              	.LFB1:
 574              		.loc 1 6 0
 575              		.cfi_startproc
 576              	.LVL21:
 577 0000 8D4C2404 		leal	4(%esp), %ecx
 578              		.cfi_def_cfa 1, 0
 579 0004 83E4F0   		andl	$-16, %esp
 580 0007 FF71FC   		pushl	-4(%ecx)
 581 000a 55       		pushl	%ebp
 582              		.cfi_escape 0x10,0x5,0x2,0x75,0
 583 000b 89E5     		movl	%esp, %ebp
 584 000d 51       		pushl	%ecx
 585              		.cfi_escape 0xf,0x3,0x75,0x7c,0x6
 586 000e 83EC0C   		subl	$12, %esp
 587              		.loc 1 6 0
 588 0011 FF7104   		pushl	4(%ecx)
 589 0014 FF31     		pushl	(%ecx)
 590 0016 E8FCFFFF 		call	_gfortran_set_args
 590      FF
 591              	.LVL22:
 592 001b 58       		popl	%eax
 593 001c 5A       		popl	%edx
 594 001d 68800000 		pushl	$options.15.2338
 594      00
 595 0022 6A09     		pushl	$9
 596 0024 E8FCFFFF 		call	_gfortran_set_options
 596      FF
 597              	.LVL23:
 598 0029 E8FCFFFF 		call	MAIN__
 598      FF
 599              	.LVL24:
 600 002e 8B55FC   		movl	-4(%ebp), %edx
 601              		.cfi_def_cfa 1, 0
 602 0031 83C410   		addl	$16, %esp
 603 0034 31C0     		xorl	%eax, %eax
 604 0036 C9       		leave
 605              		.cfi_restore 5
 606 0037 8D62FC   		leal	-4(%edx), %esp
 607              		.cfi_def_cfa 4, 4
GAS LISTING /tmp/ccaLfTog.s 			page 16


 608 003a C3       		ret
 609              		.cfi_endproc
 610              	.LFE1:
 612              		.section	.text.unlikely
 613              	.LCOLDE43:
 614              		.section	.text.startup
 615              	.LHOTE43:
 616              		.section	.rodata
 617 0069 00000000 		.align 32
 617      00000000 
 617      00000000 
 617      00000000 
 617      00000000 
 620              	options.15.2338:
 621 0080 44000000 		.long	68
 622 0084 FF030000 		.long	1023
 623 0088 00000000 		.long	0
 624 008c 00000000 		.long	0
 625 0090 01000000 		.long	1
 626 0094 01000000 		.long	1
 627 0098 00000000 		.long	0
 628 009c 00000000 		.long	0
 629 00a0 1F000000 		.long	31
 630              		.section	.rodata.cst16,"aM",@progbits,16
 631              		.align 16
 632              	.LC1:
 633 0000 00000000 		.long	0
 634 0004 00000000 		.long	0
 635 0008 00000000 		.long	0
 636 000c 0000F03F 		.long	1072693248
 637              		.align 16
 638              	.LC2:
 639 0010 00000000 		.long	0
 640 0014 00000040 		.long	1073741824
 641 0018 00000000 		.long	0
 642 001c 00000840 		.long	1074266112
 643              		.align 16
 644              	.LC3:
 645 0020 00000000 		.long	0
 646 0024 00001040 		.long	1074790400
 647 0028 00000000 		.long	0
 648 002c 00001440 		.long	1075052544
 649              		.align 16
 650              	.LC4:
 651 0030 00000000 		.long	0
 652 0034 00001840 		.long	1075314688
 653 0038 00000000 		.long	0
 654 003c 00001C40 		.long	1075576832
 655              		.align 16
 656              	.LC5:
 657 0040 00000000 		.long	0
 658 0044 00002040 		.long	1075838976
 659 0048 00000000 		.long	0
 660 004c 00002240 		.long	1075970048
 661              		.align 16
 662              	.LC6:
 663 0050 00000000 		.long	0
GAS LISTING /tmp/ccaLfTog.s 			page 17


 664 0054 00002440 		.long	1076101120
 665 0058 00000000 		.long	0
 666 005c 00002640 		.long	1076232192
 667              		.align 16
 668              	.LC7:
 669 0060 00000000 		.long	0
 670 0064 00002840 		.long	1076363264
 671 0068 00000000 		.long	0
 672 006c 00002A40 		.long	1076494336
 673              		.align 16
 674              	.LC8:
 675 0070 00000000 		.long	0
 676 0074 00002C40 		.long	1076625408
 677 0078 00000000 		.long	0
 678 007c 00002E40 		.long	1076756480
 679              		.align 16
 680              	.LC9:
 681 0080 00000000 		.long	0
 682 0084 00003040 		.long	1076887552
 683 0088 00000000 		.long	0
 684 008c 00003140 		.long	1076953088
 685              		.align 16
 686              	.LC10:
 687 0090 00000000 		.long	0
 688 0094 00003240 		.long	1077018624
 689 0098 00000000 		.long	0
 690 009c 00003340 		.long	1077084160
 691              		.align 16
 692              	.LC11:
 693 00a0 00000000 		.long	0
 694 00a4 00003440 		.long	1077149696
 695 00a8 00000000 		.long	0
 696 00ac 00003540 		.long	1077215232
 697              		.align 16
 698              	.LC12:
 699 00b0 00000000 		.long	0
 700 00b4 00003640 		.long	1077280768
 701 00b8 00000000 		.long	0
 702 00bc 00003740 		.long	1077346304
 703              		.align 16
 704              	.LC13:
 705 00c0 00000000 		.long	0
 706 00c4 00003840 		.long	1077411840
 707 00c8 00000000 		.long	0
 708 00cc 00003940 		.long	1077477376
 709              		.align 16
 710              	.LC14:
 711 00d0 00000000 		.long	0
 712 00d4 00003A40 		.long	1077542912
 713 00d8 00000000 		.long	0
 714 00dc 00003B40 		.long	1077608448
 715              		.align 16
 716              	.LC15:
 717 00e0 00000000 		.long	0
 718 00e4 00003C40 		.long	1077673984
 719 00e8 00000000 		.long	0
 720 00ec 00003D40 		.long	1077739520
GAS LISTING /tmp/ccaLfTog.s 			page 18


 721              		.align 16
 722              	.LC16:
 723 00f0 00000000 		.long	0
 724 00f4 00003E40 		.long	1077805056
 725 00f8 00000000 		.long	0
 726 00fc 00003F40 		.long	1077870592
 727              		.align 16
 728              	.LC17:
 729 0100 00000000 		.long	0
 730 0104 00004040 		.long	1077936128
 731 0108 00000000 		.long	0
 732 010c 00804040 		.long	1077968896
 733              		.align 16
 734              	.LC18:
 735 0110 00000000 		.long	0
 736 0114 00004140 		.long	1078001664
 737 0118 00000000 		.long	0
 738 011c 00804140 		.long	1078034432
 739              		.align 16
 740              	.LC19:
 741 0120 00000000 		.long	0
 742 0124 00004240 		.long	1078067200
 743 0128 00000000 		.long	0
 744 012c 00804240 		.long	1078099968
 745              		.align 16
 746              	.LC20:
 747 0130 00000000 		.long	0
 748 0134 00004340 		.long	1078132736
 749 0138 00000000 		.long	0
 750 013c 00804340 		.long	1078165504
 751              		.align 16
 752              	.LC21:
 753 0140 00000000 		.long	0
 754 0144 00004440 		.long	1078198272
 755 0148 00000000 		.long	0
 756 014c 00804440 		.long	1078231040
 757              		.align 16
 758              	.LC22:
 759 0150 00000000 		.long	0
 760 0154 00004540 		.long	1078263808
 761 0158 00000000 		.long	0
 762 015c 00804540 		.long	1078296576
 763              		.align 16
 764              	.LC23:
 765 0160 00000000 		.long	0
 766 0164 00004640 		.long	1078329344
 767 0168 00000000 		.long	0
 768 016c 00804640 		.long	1078362112
 769              		.align 16
 770              	.LC24:
 771 0170 00000000 		.long	0
 772 0174 00004740 		.long	1078394880
 773 0178 00000000 		.long	0
 774 017c 00804740 		.long	1078427648
 775              		.align 16
 776              	.LC25:
 777 0180 00000000 		.long	0
GAS LISTING /tmp/ccaLfTog.s 			page 19


 778 0184 00004840 		.long	1078460416
 779 0188 00000000 		.long	0
 780 018c 00804840 		.long	1078493184
 781              		.align 16
 782              	.LC26:
 783 0190 00000000 		.long	0
 784 0194 00004940 		.long	1078525952
 785 0198 00000000 		.long	0
 786 019c 00804940 		.long	1078558720
 787              		.align 16
 788              	.LC27:
 789 01a0 00000000 		.long	0
 790 01a4 00004A40 		.long	1078591488
 791 01a8 00000000 		.long	0
 792 01ac 00804A40 		.long	1078624256
 793              		.align 16
 794              	.LC28:
 795 01b0 00000000 		.long	0
 796 01b4 00004B40 		.long	1078657024
 797 01b8 00000000 		.long	0
 798 01bc 00804B40 		.long	1078689792
 799              		.align 16
 800              	.LC29:
 801 01c0 00000000 		.long	0
 802 01c4 00004C40 		.long	1078722560
 803 01c8 00000000 		.long	0
 804 01cc 00804C40 		.long	1078755328
 805              		.align 16
 806              	.LC30:
 807 01d0 00000000 		.long	0
 808 01d4 00004D40 		.long	1078788096
 809 01d8 00000000 		.long	0
 810 01dc 00804D40 		.long	1078820864
 811              		.align 16
 812              	.LC31:
 813 01e0 00000000 		.long	0
 814 01e4 00004E40 		.long	1078853632
 815 01e8 00000000 		.long	0
 816 01ec 00804E40 		.long	1078886400
 817              		.align 16
 818              	.LC32:
 819 01f0 00000000 		.long	0
 820 01f4 00004F40 		.long	1078919168
 821 01f8 00000000 		.long	0
 822 01fc 00804F40 		.long	1078951936
 823              		.align 16
 824              	.LC33:
 825 0200 00000000 		.long	0
 826 0204 0000D03F 		.long	1070596096
 827 0208 00000000 		.long	0
 828 020c 0000D03F 		.long	1070596096
 829              		.align 16
 830              	.LC34:
 831 0210 FFFFFFFF 		.long	-1
 832 0214 FFFFFF7F 		.long	2147483647
 833 0218 FFFFFFFF 		.long	-1
 834 021c FFFFFF7F 		.long	2147483647
GAS LISTING /tmp/ccaLfTog.s 			page 20


 835              		.section	.rodata.cst4,"aM",@progbits,4
 836              		.align 4
 837              	.LC37:
 838 0000 0000803F 		.long	1065353216
 839              		.text
 840              	.Letext0:
 841              		.section	.text.unlikely
 842              	.Letext_cold0:
GAS LISTING /tmp/ccaLfTog.s 			page 21


DEFINED SYMBOLS
                            *ABS*:0000000000000000 iterate.f90
     /tmp/ccaLfTog.s:28     .text:0000000000000000 MAIN__
     /tmp/ccaLfTog.s:572    .text.startup:0000000000000000 main
     /tmp/ccaLfTog.s:620    .rodata:0000000000000080 options.15.2338

UNDEFINED SYMBOLS
_gfortran_st_read
__scalemod_MOD_avalue
_gfortran_transfer_real
_gfortran_st_read_done
__scalemod_MOD_vb
__scalemod_MOD_va
_gfortran_cpu_time_8
__scalemod_MOD_scale_0
__scalemod_MOD_exact_value
__scalemod_MOD_exvalue
_gfortran_st_write
_gfortran_transfer_array_write
_gfortran_st_write_done
__scalemod_MOD_flop
_gfortran_transfer_real_write
_gfortran_transfer_character_write
_gfortran_set_args
_gfortran_set_options
