GAS LISTING /tmp/ccaLfTog.s 			page 1


   1              		.file	"scale.f90"
   2              		.text
   3              	.Ltext0:
   4              		.section	.text.unlikely,"ax",@progbits
   5              	.LCOLDB4:
   6              		.text
   7              	.LHOTB4:
   8              		.p2align 4,,15
   9              		.section	.text.unlikely
  10              	.Ltext_cold0:
  11              		.text
  12              		.globl	__scalemod_MOD_exvalue
  14              	__scalemod_MOD_exvalue:
  15              	.LFB0:
  16              		.file 1 "<command-line>"
   1:<command-line> **** 
  17              		.loc 1 37 0
  18              		.cfi_startproc
  19              	.LVL0:
  20 0000 56       		pushl	%esi
  21              		.cfi_def_cfa_offset 8
  22              		.cfi_offset 6, -8
  23              	.LBB2:
  24 0001 B9010000 		movl	$1, %ecx
  24      00
  25              	.LBE2:
  26 0006 53       		pushl	%ebx
  27              		.cfi_def_cfa_offset 12
  28              		.cfi_offset 3, -12
  29              	.LBB3:
  30 0007 89CB     		movl	%ecx, %ebx
  31              	.LBE3:
  32 0009 83EC14   		subl	$20, %esp
  33              		.cfi_def_cfa_offset 32
  34              	.LBB4:
  35              		.loc 1 41 0
  36 000c DD050000 		fldl	__scalemod_MOD_avalue
  36      0000
  37              	.LBE4:
  38              		.loc 1 37 0
  39 0012 8B742420 		movl	32(%esp), %esi
  40              	.LBB6:
  41 0016 8B460C   		movl	12(%esi), %eax
  42              	.LBE6:
  43              	.LBB7:
  44              		.loc 1 41 0
  45 0019 68D01263 		pushl	$1097011920
  45      41
  46              		.cfi_def_cfa_offset 36
  47 001e 6A00     		pushl	$0
  48              		.cfi_def_cfa_offset 40
  49              	.LBE7:
  50              	.LBB8:
  51              		.loc 1 37 0
  52 0020 85C0     		testl	%eax, %eax
  53 0022 0F45D8   		cmovne	%eax, %ebx
  54              	.LVL1:
GAS LISTING /tmp/ccaLfTog.s 			page 2


  55              	.LBE8:
  56              	.LBB9:
  57              		.loc 1 41 0
  58 0025 83EC08   		subl	$8, %esp
  59              		.cfi_def_cfa_offset 48
  60 0028 DD1424   		fstl	(%esp)
  61 002b DD5C2418 		fstpl	24(%esp)
  62 002f E8FCFFFF 		call	pow
  62      FF
  63              	.LVL2:
  64 0034 8B36     		movl	(%esi), %esi
  65 0036 83C410   		addl	$16, %esp
  66              		.cfi_def_cfa_offset 32
  67 0039 BA000000 		movl	$__scalemod_MOD_vb, %edx
  67      00
  68 003e D9E8     		fld1
  69 0040 D9C1     		fld	%st(1)
  70 0042 D8E1     		fsub	%st(1), %st
  71 0044 DD442408 		fldl	8(%esp)
  72 0048 8D0CDD00 		leal	0(,%ebx,8), %ecx
  72      000000
  73 004f DEE2     		fsubp	%st, %st(2)
  74              	.LBB5:
  75 0051 D9050000 		flds	.LC2
  75      0000
  76 0057 89F68DBC 		.p2align 4,,10
  76      27000000 
  76      00
  77              		.p2align 3
  78              	.L3:
  79              		.loc 1 41 0 is_stmt 0 discriminator 2
  80 0060 DD02     		fldl	(%edx)
  81 0062 83C240   		addl	$64, %edx
  82 0065 D9C0     		fld	%st(0)
  83 0067 D8CA     		fmul	%st(2), %st
  84 0069 D8CD     		fmul	%st(5), %st
  85 006b D9C9     		fxch	%st(1)
  86 006d D8CB     		fmul	%st(3), %st
  87 006f D8F4     		fdiv	%st(4), %st
  88 0071 DEC1     		faddp	%st, %st(1)
  89 0073 DD1E     		fstpl	(%esi)
  90 0075 DD42C8   		fldl	-56(%edx)
  91 0078 01CE     		addl	%ecx, %esi
  92 007a D9C0     		fld	%st(0)
  93 007c D8CA     		fmul	%st(2), %st
  94 007e D8CD     		fmul	%st(5), %st
  95 0080 D9C9     		fxch	%st(1)
  96 0082 D8CB     		fmul	%st(3), %st
  97 0084 D8F4     		fdiv	%st(4), %st
  98 0086 DEC1     		faddp	%st, %st(1)
  99 0088 DD1E     		fstpl	(%esi)
 100 008a DD42D0   		fldl	-48(%edx)
 101 008d 01CE     		addl	%ecx, %esi
 102 008f D9C0     		fld	%st(0)
 103 0091 D8CA     		fmul	%st(2), %st
 104 0093 D8CD     		fmul	%st(5), %st
 105 0095 D9C9     		fxch	%st(1)
GAS LISTING /tmp/ccaLfTog.s 			page 3


 106 0097 D8CB     		fmul	%st(3), %st
 107 0099 D8F4     		fdiv	%st(4), %st
 108 009b DEC1     		faddp	%st, %st(1)
 109 009d DD1E     		fstpl	(%esi)
 110 009f DD42D8   		fldl	-40(%edx)
 111 00a2 01CE     		addl	%ecx, %esi
 112 00a4 D9C0     		fld	%st(0)
 113 00a6 D8CA     		fmul	%st(2), %st
 114 00a8 D8CD     		fmul	%st(5), %st
 115 00aa D9C9     		fxch	%st(1)
 116 00ac D8CB     		fmul	%st(3), %st
 117 00ae D8F4     		fdiv	%st(4), %st
 118 00b0 DEC1     		faddp	%st, %st(1)
 119 00b2 DD1E     		fstpl	(%esi)
 120 00b4 DD42E0   		fldl	-32(%edx)
 121 00b7 01CE     		addl	%ecx, %esi
 122 00b9 D9C0     		fld	%st(0)
 123 00bb D8CA     		fmul	%st(2), %st
 124 00bd D8CD     		fmul	%st(5), %st
 125 00bf D9C9     		fxch	%st(1)
 126 00c1 D8CB     		fmul	%st(3), %st
 127 00c3 D8F4     		fdiv	%st(4), %st
 128 00c5 DEC1     		faddp	%st, %st(1)
 129 00c7 DD1E     		fstpl	(%esi)
 130 00c9 DD42E8   		fldl	-24(%edx)
 131 00cc 01CE     		addl	%ecx, %esi
 132 00ce D9C0     		fld	%st(0)
 133 00d0 D8CA     		fmul	%st(2), %st
 134 00d2 D8CD     		fmul	%st(5), %st
 135 00d4 D9C9     		fxch	%st(1)
 136 00d6 D8CB     		fmul	%st(3), %st
 137 00d8 D8F4     		fdiv	%st(4), %st
 138 00da DEC1     		faddp	%st, %st(1)
 139 00dc DD1E     		fstpl	(%esi)
 140 00de DD42F0   		fldl	-16(%edx)
 141 00e1 01CE     		addl	%ecx, %esi
 142 00e3 D9C0     		fld	%st(0)
 143 00e5 D8CA     		fmul	%st(2), %st
 144 00e7 D8CD     		fmul	%st(5), %st
 145 00e9 D9C9     		fxch	%st(1)
 146 00eb D8CB     		fmul	%st(3), %st
 147 00ed D8F4     		fdiv	%st(4), %st
 148 00ef DEC1     		faddp	%st, %st(1)
 149 00f1 DD1E     		fstpl	(%esi)
 150 00f3 DD42F8   		fldl	-8(%edx)
 151 00f6 01CE     		addl	%ecx, %esi
 152 00f8 D9C0     		fld	%st(0)
 153 00fa D8CA     		fmul	%st(2), %st
 154 00fc D8CD     		fmul	%st(5), %st
 155 00fe D9C9     		fxch	%st(1)
 156 0100 D8CB     		fmul	%st(3), %st
 157 0102 D8F4     		fdiv	%st(4), %st
 158 0104 DEC1     		faddp	%st, %st(1)
 159 0106 DD1E     		fstpl	(%esi)
 160 0108 01CE     		addl	%ecx, %esi
 161 010a 81FA0002 		cmpl	$__scalemod_MOD_vb+512, %edx
 161      0000
GAS LISTING /tmp/ccaLfTog.s 			page 4


 162 0110 0F854AFF 		jne	.L3
 162      FFFF
 163 0116 DDD8     		fstp	%st(0)
 164 0118 DDD8     		fstp	%st(0)
 165 011a DDD8     		fstp	%st(0)
 166 011c DDD8     		fstp	%st(0)
 167              	.LBE5:
 168              	.LBE9:
 169              		.loc 1 45 0 is_stmt 1
 170 011e 83C414   		addl	$20, %esp
 171              		.cfi_def_cfa_offset 12
 172 0121 5B       		popl	%ebx
 173              		.cfi_restore 3
 174              		.cfi_def_cfa_offset 8
 175 0122 5E       		popl	%esi
 176              		.cfi_restore 6
 177              		.cfi_def_cfa_offset 4
 178 0123 C3       		ret
 179              		.cfi_endproc
 180              	.LFE0:
 182              		.section	.text.unlikely
 183              	.LCOLDE4:
 184              		.text
 185              	.LHOTE4:
 186              		.section	.text.unlikely
 187              	.LCOLDB5:
 188              		.text
 189              	.LHOTB5:
 190 0124 8DB60000 		.p2align 4,,15
 190      00008DBF 
 190      00000000 
 191              		.globl	__scalemod_MOD_scale_0
 193              	__scalemod_MOD_scale_0:
 194              	.LFB1:
 195              		.loc 1 23 0
 196              		.cfi_startproc
 197              	.LVL3:
 198 0130 55       		pushl	%ebp
 199              		.cfi_def_cfa_offset 8
 200              		.cfi_offset 5, -8
 201              	.LBB10:
 202 0131 BA010000 		movl	$1, %edx
 202      00
 203              	.LBE10:
 204 0136 57       		pushl	%edi
 205              		.cfi_def_cfa_offset 12
 206              		.cfi_offset 7, -12
 207 0137 56       		pushl	%esi
 208              		.cfi_def_cfa_offset 16
 209              		.cfi_offset 6, -16
 210 0138 53       		pushl	%ebx
 211              		.cfi_def_cfa_offset 20
 212              		.cfi_offset 3, -20
 213              		.loc 1 23 0
 214 0139 8B742418 		movl	24(%esp), %esi
 215 013d 8B44241C 		movl	28(%esp), %eax
 216 0141 8B7C2414 		movl	20(%esp), %edi
GAS LISTING /tmp/ccaLfTog.s 			page 5


 217              	.LVL4:
 218              	.LBB11:
 219 0145 8B5E0C   		movl	12(%esi), %ebx
 220              	.LBE11:
 221              	.LBB12:
 222 0148 8B480C   		movl	12(%eax), %ecx
 223              	.LBE12:
 224              	.LBB13:
 225 014b 8B6F0C   		movl	12(%edi), %ebp
 226 014e 8B36     		movl	(%esi), %esi
 227              	.LBE13:
 228              	.LBB14:
 229 0150 85DB     		testl	%ebx, %ebx
 230 0152 8B00     		movl	(%eax), %eax
 231 0154 0F44DA   		cmove	%edx, %ebx
 232              	.LBE14:
 233              	.LBB15:
 234 0157 85C9     		testl	%ecx, %ecx
 235 0159 8B3F     		movl	(%edi), %edi
 236 015b 0F44CA   		cmove	%edx, %ecx
 237              	.LBE15:
 238              	.LBB16:
 239 015e 85ED     		testl	%ebp, %ebp
 240 0160 0F45D5   		cmovne	%ebp, %edx
 241              	.LBE16:
 242              	.LBB17:
 243              		.loc 1 32 0
 244 0163 8B6C2420 		movl	32(%esp), %ebp
 245 0167 C1E303   		sall	$3, %ebx
 246 016a C1E103   		sall	$3, %ecx
 247 016d C1E203   		sall	$3, %edx
 248 0170 DD4500   		fldl	0(%ebp)
 249 0173 BD400000 		movl	$64, %ebp
 249      00
 250              	.LVL5:
 251 0178 908DB426 		.p2align 4,,10
 251      00000000 
 252              		.p2align 3
 253              	.L19:
 254              	.LBB18:
 255              		.loc 1 32 0 is_stmt 0 discriminator 2
 256 0180 DD06     		fldl	(%esi)
 257 0182 01DE     		addl	%ebx, %esi
 258 0184 D8C9     		fmul	%st(1), %st
 259 0186 DC00     		faddl	(%eax)
 260 0188 01C8     		addl	%ecx, %eax
 261 018a DD1F     		fstpl	(%edi)
 262 018c DD06     		fldl	(%esi)
 263 018e 01D7     		addl	%edx, %edi
 264 0190 01DE     		addl	%ebx, %esi
 265 0192 D8C9     		fmul	%st(1), %st
 266 0194 DC00     		faddl	(%eax)
 267 0196 01C8     		addl	%ecx, %eax
 268 0198 DD1F     		fstpl	(%edi)
 269 019a DD06     		fldl	(%esi)
 270 019c 01D7     		addl	%edx, %edi
 271 019e 01DE     		addl	%ebx, %esi
GAS LISTING /tmp/ccaLfTog.s 			page 6


 272 01a0 D8C9     		fmul	%st(1), %st
 273 01a2 DC00     		faddl	(%eax)
 274 01a4 01C8     		addl	%ecx, %eax
 275 01a6 DD1F     		fstpl	(%edi)
 276 01a8 DD06     		fldl	(%esi)
 277 01aa 01D7     		addl	%edx, %edi
 278 01ac 01DE     		addl	%ebx, %esi
 279 01ae D8C9     		fmul	%st(1), %st
 280 01b0 DC00     		faddl	(%eax)
 281 01b2 01C8     		addl	%ecx, %eax
 282 01b4 DD1F     		fstpl	(%edi)
 283 01b6 DD06     		fldl	(%esi)
 284 01b8 01D7     		addl	%edx, %edi
 285 01ba 01DE     		addl	%ebx, %esi
 286 01bc D8C9     		fmul	%st(1), %st
 287 01be DC00     		faddl	(%eax)
 288 01c0 01C8     		addl	%ecx, %eax
 289 01c2 DD1F     		fstpl	(%edi)
 290 01c4 DD06     		fldl	(%esi)
 291 01c6 01D7     		addl	%edx, %edi
 292 01c8 01DE     		addl	%ebx, %esi
 293 01ca D8C9     		fmul	%st(1), %st
 294 01cc DC00     		faddl	(%eax)
 295 01ce 01C8     		addl	%ecx, %eax
 296 01d0 DD1F     		fstpl	(%edi)
 297 01d2 DD06     		fldl	(%esi)
 298 01d4 01D7     		addl	%edx, %edi
 299 01d6 01DE     		addl	%ebx, %esi
 300 01d8 D8C9     		fmul	%st(1), %st
 301 01da DC00     		faddl	(%eax)
 302 01dc 01C8     		addl	%ecx, %eax
 303 01de DD1F     		fstpl	(%edi)
 304 01e0 DD06     		fldl	(%esi)
 305 01e2 01D7     		addl	%edx, %edi
 306 01e4 01DE     		addl	%ebx, %esi
 307 01e6 D8C9     		fmul	%st(1), %st
 308 01e8 DC00     		faddl	(%eax)
 309 01ea 01C8     		addl	%ecx, %eax
 310 01ec DD1F     		fstpl	(%edi)
 311 01ee 01D7     		addl	%edx, %edi
 312 01f0 83ED08   		subl	$8, %ebp
 313 01f3 758B     		jne	.L19
 314 01f5 DDD8     		fstp	%st(0)
 315              	.LBE18:
 316              	.LBE17:
 317              		.loc 1 35 0 is_stmt 1
 318 01f7 5B       		popl	%ebx
 319              		.cfi_restore 3
 320              		.cfi_def_cfa_offset 16
 321 01f8 5E       		popl	%esi
 322              		.cfi_restore 6
 323              		.cfi_def_cfa_offset 12
 324 01f9 5F       		popl	%edi
 325              		.cfi_restore 7
 326              		.cfi_def_cfa_offset 8
 327 01fa 5D       		popl	%ebp
 328              		.cfi_restore 5
GAS LISTING /tmp/ccaLfTog.s 			page 7


 329              		.cfi_def_cfa_offset 4
 330 01fb C3       		ret
 331              		.cfi_endproc
 332              	.LFE1:
 334              		.section	.text.unlikely
 335              	.LCOLDE5:
 336              		.text
 337              	.LHOTE5:
 338              		.globl	__scalemod_MOD_vb
 339              		.bss
 340              		.align 64
 343              	__scalemod_MOD_vb:
 344 0000 00000000 		.zero	512
 344      00000000 
 344      00000000 
 344      00000000 
 344      00000000 
 345              		.globl	__scalemod_MOD_va
 346              		.align 64
 349              	__scalemod_MOD_va:
 350 0200 00000000 		.zero	512
 350      00000000 
 350      00000000 
 350      00000000 
 350      00000000 
 351              		.globl	__scalemod_MOD_flop
 352              		.data
 353              		.align 8
 356              	__scalemod_MOD_flop:
 357 0000 00000000 		.long	0
 358 0004 D012D341 		.long	1104351952
 359              		.globl	__scalemod_MOD_exact_value
 360              		.bss
 361              		.align 64
 364              	__scalemod_MOD_exact_value:
 365 0400 00000000 		.zero	512
 365      00000000 
 365      00000000 
 365      00000000 
 365      00000000 
 366              		.globl	__scalemod_MOD_avalue
 367              		.align 8
 370              	__scalemod_MOD_avalue:
 371 0600 00000000 		.zero	8
 371      00000000 
 372              		.section	.rodata.cst4,"aM",@progbits,4
 373              		.align 4
 374              	.LC2:
 375 0000 0000803E 		.long	1048576000
 376              		.text
 377              	.Letext0:
 378              		.section	.text.unlikely
 379              	.Letext_cold0:
 380              		.file 2 "<built-in>"
GAS LISTING /tmp/ccaLfTog.s 			page 8

